; Function Attrs: mustprogress uwtable
define noundef i32 @_ZNK6icu_7715ChineseCalendar14getRelatedYearER10UErrorCode(ptr noundef nonnull align 8 dereferenceable(193) %0, ptr noundef nonnull align 4 dereferenceable(4) %1) unnamed_addr #0 align 2 {
  %3 = alloca i32, align 4
  call void @llvm.lifetime.start.p0(i64 4, ptr nonnull %3) #8
  %4 = tail call noundef i32 @_ZNK6icu_778Calendar3getE19UCalendarDateFieldsR10UErrorCode(ptr noundef nonnull align 8 dereferenceable(192) %0, i32 noundef 19, ptr noundef nonnull align 4 dereferenceable(4) %1)
  store i32 %4, ptr %3, align 4, !tbaa !20
  %5 = load i32, ptr %1, align 4, !tbaa !21
  %6 = icmp slt i32 %5, 1
  br i1 %6, label %7, label %12

7:                                                ; preds = %2
  %8 = call signext i8 @uprv_add32_overflow_77(i32 noundef %4, i32 noundef -2637, ptr noundef nonnull %3)
  %.not4 = icmp eq i8 %8, 0
  br i1 %.not4, label %10, label %9

9:                                                ; preds = %7
  store i32 1, ptr %1, align 4, !tbaa !21
  br label %12

10:                                               ; preds = %7
  %11 = load i32, ptr %3, align 4, !tbaa !20
  br label %12

12:                                               ; preds = %2, %10, %9
  %.0 = phi i32 [ 0, %9 ], [ %11, %10 ], [ 0, %2 ]
  call void @llvm.lifetime.end.p0(i64 4, ptr nonnull %3) #8
  ret i32 %.0
}